; Function Attrs: nounwind sspstrong uwtable
define internal fastcc void @zrle_encode_24bbe(ptr noundef %vs, i32 noundef %x, i32 noundef %y, i32 noundef %w, i32 noundef %h, i32 noundef range(i32 0, 4) %zywrle_level) unnamed_addr #0 {
entry:
  %tmp.i = alloca %struct.Buffer, align 8
  %add = add i32 %h, %y
  %cmp22 = icmp slt i32 %y, %add
  br i1 %cmp22, label %for.body.lr.ph, label %for.end18

for.body.lr.ph:                                   ; preds = %entry
  %add4 = add i32 %w, %x
  %cmp520 = icmp slt i32 %x, %add4
  %zrle.i = getelementptr inbounds nuw i8, ptr %vs, i64 49816
  %output.i = getelementptr inbounds nuw i8, ptr %vs, i64 49328
  br i1 %cmp520, label %for.body.us, label %for.end18

for.body.us:                                      ; preds = %for.body.lr.ph, %for.cond3.for.inc16_crit_edge.us
  %ty.023.us = phi i32 [ %add17.us, %for.cond3.for.inc16_crit_edge.us ], [ %y, %for.body.lr.ph ]
  %sub.us = sub i32 %add, %ty.023.us
  %cond.us = tail call i32 @llvm.smin.i32(i32 %sub.us, i32 64)
  %mul.i.us = shl i32 %cond.us, 5
  br label %for.body6.us

for.body6.us:                                     ; preds = %for.body.us, %for.body6.us
  %tx.021.us = phi i32 [ %x, %for.body.us ], [ %add15.us, %for.body6.us ]
  %sub8.us = sub i32 %add4, %tx.021.us
  %cond14.us = tail call i32 @llvm.smin.i32(i32 %sub8.us, i32 64)
  call void @llvm.lifetime.start.p0(i64 40, ptr nonnull %tmp.i)
  %0 = load ptr, ptr %zrle.i, align 8
  %fb.i.us = getelementptr inbounds nuw i8, ptr %0, i64 8
  tail call void @buffer_reset(ptr noundef nonnull %fb.i.us) #9
  %1 = load ptr, ptr %zrle.i, align 8
  %fb2.i.us = getelementptr inbounds nuw i8, ptr %1, i64 8
  %mul313.i.us = mul i32 %mul.i.us, %cond14.us
  %add.i.us = add i32 %mul313.i.us, 32
  %conv.i.us = sext i32 %add.i.us to i64
  tail call void @buffer_reserve(ptr noundef nonnull %fb2.i.us, i64 noundef %conv.i.us) #9
  call void @llvm.memcpy.p0.p0.i64(ptr noundef nonnull align 8 dereferenceable(40) %tmp.i, ptr noundef nonnull align 8 dereferenceable(40) %output.i, i64 40, i1 false)
  %2 = load ptr, ptr %zrle.i, align 8
  %fb6.i.us = getelementptr inbounds nuw i8, ptr %2, i64 8
  tail call void @llvm.memcpy.p0.p0.i64(ptr noundef nonnull align 8 dereferenceable(40) %output.i, ptr noundef nonnull align 8 dereferenceable(40) %fb6.i.us, i64 40, i1 false)
  %call.i.us = tail call i32 @vnc_raw_send_framebuffer_update(ptr noundef %vs, i32 noundef %tx.021.us, i32 noundef %ty.023.us, i32 noundef %cond14.us, i32 noundef %cond.us) #9
  %3 = load ptr, ptr %zrle.i, align 8
  %fb8.i.us = getelementptr inbounds nuw i8, ptr %3, i64 8
  tail call void @llvm.memcpy.p0.p0.i64(ptr noundef nonnull align 8 dereferenceable(40) %fb8.i.us, ptr noundef nonnull align 8 dereferenceable(40) %output.i, i64 40, i1 false)
  call void @llvm.memcpy.p0.p0.i64(ptr noundef nonnull align 8 dereferenceable(40) %output.i, ptr noundef nonnull align 8 dereferenceable(40) %tmp.i, i64 40, i1 false)
  %4 = load ptr, ptr %zrle.i, align 8
  %buffer.i.us = getelementptr inbounds nuw i8, ptr %4, i64 40
  %5 = load ptr, ptr %buffer.i.us, align 8
  call void @llvm.lifetime.end.p0(i64 40, ptr nonnull %tmp.i)
  tail call fastcc void @zrle_encode_tile24bbe(ptr noundef %vs, ptr noundef %5, i32 noundef %cond14.us, i32 noundef %cond.us, i32 noundef %zywrle_level)
  %add15.us = add i32 %tx.021.us, 64
  %cmp5.us = icmp slt i32 %add15.us, %add4
  br i1 %cmp5.us, label %for.body6.us, label %for.cond3.for.inc16_crit_edge.us, !llvm.loop !28

for.cond3.for.inc16_crit_edge.us:                 ; preds = %for.body6.us
  %add17.us = add i32 %ty.023.us, 64
  %cmp.us = icmp slt i32 %add17.us, %add
  br i1 %cmp.us, label %for.body.us, label %for.end18, !llvm.loop !29

for.end18:                                        ; preds = %for.cond3.for.inc16_crit_edge.us, %for.body.lr.ph, %entry
  ret void
}